; ModuleID = '22/77.c'
source_filename = "22/77.c"
target datalayout = "e-m:e-p270:32:32-p271:32:32-p272:64:64-i64:64-f80:128-n8:16:32:64-S128"
target triple = "x86_64-pc-linux-gnu"

@.str = private unnamed_addr constant [3 x i8] c"%d\00", align 1
@.str.1 = private unnamed_addr constant [3 x i8] c"%c\00", align 1
@.str.2 = private unnamed_addr constant [5 x i8] c"%d%c\00", align 1
@.str.3 = private unnamed_addr constant [4 x i8] c"No\0A\00", align 1

; Function Attrs: noinline nounwind uwtable
define dso_local void @main() #0 {
  %1 = alloca [300 x i64], align 16
  %2 = alloca [300 x i8], align 16
  %3 = alloca i32, align 4
  %4 = alloca i32, align 4
  %5 = alloca i32, align 4
  %6 = alloca i32, align 4
  %7 = alloca i32, align 4
  store i32 0, i32* %7, align 4
  %8 = getelementptr inbounds [300 x i64], [300 x i64]* %1, i64 0, i64 0
  %9 = call i32 (i8*, ...) @__isoc99_scanf(i8* getelementptr inbounds ([3 x i8], [3 x i8]* @.str, i64 0, i64 0), i64* %8)
  %10 = getelementptr inbounds [300 x i8], [300 x i8]* %2, i64 0, i64 0
  %11 = call i32 (i8*, ...) @__isoc99_scanf(i8* getelementptr inbounds ([3 x i8], [3 x i8]* @.str.1, i64 0, i64 0), i8* %10)
  store i32 1, i32* %3, align 4
  br label %12

12:                                               ; preds = %28, %0
  %13 = load i32, i32* %3, align 4
  %14 = sub nsw i32 %13, 1
  %15 = sext i32 %14 to i64
  %16 = getelementptr inbounds [300 x i8], [300 x i8]* %2, i64 0, i64 %15
  %17 = load i8, i8* %16, align 1
  %18 = sext i8 %17 to i32
  %19 = icmp eq i32 %18, 44
  br i1 %19, label %20, label %31

20:                                               ; preds = %12
  %21 = load i32, i32* %3, align 4
  %22 = sext i32 %21 to i64
  %23 = getelementptr inbounds [300 x i64], [300 x i64]* %1, i64 0, i64 %22
  %24 = load i32, i32* %3, align 4
  %25 = sext i32 %24 to i64
  %26 = getelementptr inbounds [300 x i8], [300 x i8]* %2, i64 0, i64 %25
  %27 = call i32 (i8*, ...) @__isoc99_scanf(i8* getelementptr inbounds ([5 x i8], [5 x i8]* @.str.2, i64 0, i64 0), i64* %23, i8* %26)
  br label %28

28:                                               ; preds = %20
  %29 = load i32, i32* %3, align 4
  %30 = add nsw i32 %29, 1
  store i32 %30, i32* %3, align 4
  br label %12

31:                                               ; preds = %12
  %32 = load i32, i32* %3, align 4
  store i32 %32, i32* %4, align 4
  %33 = load i32, i32* %4, align 4
  %34 = icmp eq i32 %33, 1
  br i1 %34, label %35, label %37

35:                                               ; preds = %31
  %36 = call i32 (i8*, ...) @printf(i8* getelementptr inbounds ([4 x i8], [4 x i8]* @.str.3, i64 0, i64 0))
  br label %103

37:                                               ; preds = %31
  %38 = getelementptr inbounds [300 x i64], [300 x i64]* %1, i64 0, i64 0
  %39 = load i64, i64* %38, align 16
  %40 = trunc i64 %39 to i32
  store i32 %40, i32* %5, align 4
  store i32 0, i32* %3, align 4
  br label %41

41:                                               ; preds = %60, %37
  %42 = load i32, i32* %3, align 4
  %43 = load i32, i32* %4, align 4
  %44 = icmp slt i32 %42, %43
  br i1 %44, label %45, label %63

45:                                               ; preds = %41
  %46 = load i32, i32* %3, align 4
  %47 = sext i32 %46 to i64
  %48 = getelementptr inbounds [300 x i64], [300 x i64]* %1, i64 0, i64 %47
  %49 = load i64, i64* %48, align 8
  %50 = load i32, i32* %5, align 4
  %51 = sext i32 %50 to i64
  %52 = icmp sgt i64 %49, %51
  br i1 %52, label %53, label %59

53:                                               ; preds = %45
  %54 = load i32, i32* %3, align 4
  %55 = sext i32 %54 to i64
  %56 = getelementptr inbounds [300 x i64], [300 x i64]* %1, i64 0, i64 %55
  %57 = load i64, i64* %56, align 8
  %58 = trunc i64 %57 to i32
  store i32 %58, i32* %5, align 4
  br label %59

59:                                               ; preds = %53, %45
  br label %60

60:                                               ; preds = %59
  %61 = load i32, i32* %3, align 4
  %62 = add nsw i32 %61, 1
  store i32 %62, i32* %3, align 4
  br label %41

63:                                               ; preds = %41
  store i32 0, i32* %6, align 4
  store i32 0, i32* %3, align 4
  br label %64

64:                                               ; preds = %91, %63
  %65 = load i32, i32* %3, align 4
  %66 = load i32, i32* %4, align 4
  %67 = icmp slt i32 %65, %66
  br i1 %67, label %68, label %94

68:                                               ; preds = %64
  %69 = load i32, i32* %3, align 4
  %70 = sext i32 %69 to i64
  %71 = getelementptr inbounds [300 x i64], [300 x i64]* %1, i64 0, i64 %70
  %72 = load i64, i64* %71, align 8
  %73 = load i32, i32* %6, align 4
  %74 = sext i32 %73 to i64
  %75 = icmp sgt i64 %72, %74
  br i1 %75, label %76, label %90

76:                                               ; preds = %68
  %77 = load i32, i32* %3, align 4
  %78 = sext i32 %77 to i64
  %79 = getelementptr inbounds [300 x i64], [300 x i64]* %1, i64 0, i64 %78
  %80 = load i64, i64* %79, align 8
  %81 = load i32, i32* %5, align 4
  %82 = sext i32 %81 to i64
  %83 = icmp slt i64 %80, %82
  br i1 %83, label %84, label %90

84:                                               ; preds = %76
  %85 = load i32, i32* %3, align 4
  %86 = sext i32 %85 to i64
  %87 = getelementptr inbounds [300 x i64], [300 x i64]* %1, i64 0, i64 %86
  %88 = load i64, i64* %87, align 8
  %89 = trunc i64 %88 to i32
  store i32 %89, i32* %6, align 4
  store i32 1, i32* %7, align 4
  br label %90

90:                                               ; preds = %84, %76, %68
  br label %91

91:                                               ; preds = %90
  %92 = load i32, i32* %3, align 4
  %93 = add nsw i32 %92, 1
  store i32 %93, i32* %3, align 4
  br label %64

94:                                               ; preds = %64
  %95 = load i32, i32* %7, align 4
  %96 = icmp eq i32 %95, 1
  br i1 %96, label %97, label %100

97:                                               ; preds = %94
  %98 = load i32, i32* %6, align 4
  %99 = call i32 (i8*, ...) @printf(i8* getelementptr inbounds ([3 x i8], [3 x i8]* @.str, i64 0, i64 0), i32 %98)
  br label %102

100:                                              ; preds = %94
  %101 = call i32 (i8*, ...) @printf(i8* getelementptr inbounds ([4 x i8], [4 x i8]* @.str.3, i64 0, i64 0))
  br label %102

102:                                              ; preds = %100, %97
  br label %103

103:                                              ; preds = %102, %35
  ret void
}

declare dso_local i32 @__isoc99_scanf(i8*, ...) #1

declare dso_local i32 @printf(i8*, ...) #1


!llvm.module.flags = !{!0}
!llvm.ident = !{!1}

!0 = !{i32 1, !"wchar_size", i32 4}
!1 = !{!"clang version 10.0.0-4ubuntu1 "}
